target datalayout = "e-m:e-p270:32:32-p271:32:32-p272:64:64-i64:64-i128:128-f80:128-n8:16:32:64-S128"
target triple = "x86_64-pc-linux-gnu"

%struct._lv_global_t = type { i8, i8, %struct.lv_ll_t, ptr, ptr, %struct.lv_ll_t, i8, i32, i32, ptr, %struct.lv_ll_t, ptr, %struct.lv_ll_t, ptr, ptr, i32, ptr, i8, i32, i32, ptr, i32, %struct.lv_timer_state_t, %struct.lv_anim_state_t, %struct.lv_tick_state_t, %struct._lv_draw_buf_handlers_t, %struct._lv_draw_buf_handlers_t, %struct._lv_draw_buf_handlers_t, %struct.lv_ll_t, ptr, ptr, %struct.lv_draw_global_info_t, [4 x %struct.lv_draw_sw_mask_radius_circle_dsc_t], ptr, ptr, ptr, %struct.lv_tlsf_state_t, %struct.lv_ll_t, ptr, ptr, %struct.lv_style_t, i64, ptr, i32, ptr }
%struct.lv_timer_state_t = type { %struct.lv_ll_t, i8, i8, i8, i8, i32, i8, i32, i32, i32, i32, ptr, ptr }
%struct.lv_anim_state_t = type { i8, i8, ptr, %struct.lv_ll_t }
%struct.lv_tick_state_t = type { i32, i8, ptr, ptr }
%struct._lv_draw_buf_handlers_t = type { ptr, ptr, ptr, ptr, ptr, ptr }
%struct.lv_draw_global_info_t = type { ptr, i32, i32, i32, i32, i8 }
%struct.lv_draw_sw_mask_radius_circle_dsc_t = type { ptr, ptr, ptr, ptr, i32, i32, i32 }
%struct.lv_tlsf_state_t = type { ptr, i64, i64, %struct.lv_ll_t }
%struct.lv_ll_t = type { i32, ptr, ptr }
%struct.lv_style_t = type { ptr, i32, i8 }
%struct._lv_freetype_image_cache_data_t = type { i32, i32, ptr }
%struct._lv_freetype_font_dsc_t = type { i32, %struct._lv_font_t, i32, i32, i32, ptr, ptr, ptr, ptr }
%struct._lv_font_t = type { ptr, ptr, ptr, i32, i32, i8, i8, i8, ptr, ptr, ptr }
%struct._lv_freetype_cache_node_t = type { ptr, i32, i32, i32, ptr, i32, ptr, ptr }
%struct.FT_FaceRec_ = type { i64, i64, i64, i64, i64, ptr, ptr, i32, ptr, i32, ptr, %struct.FT_Generic_, %struct.FT_BBox_, i16, i16, i16, i16, i16, i16, i16, i16, ptr, ptr, ptr, ptr, ptr, ptr, %struct.FT_ListRec_, %struct.FT_Generic_, ptr, ptr }
%struct.FT_BBox_ = type { i64, i64, i64, i64 }
%struct.FT_ListRec_ = type { ptr, ptr }
%struct.FT_Generic_ = type { ptr, ptr }
%struct.FT_BitmapGlyphRec_ = type { %struct.FT_GlyphRec_, i32, i32, %struct.FT_Bitmap_ }
%struct.FT_GlyphRec_ = type { ptr, ptr, i32, %struct.FT_Vector_ }
%struct.FT_Vector_ = type { i64, i64 }
%struct.FT_Bitmap_ = type { i32, i32, i32, ptr, i16, i8, i8, ptr }
%struct._lv_draw_buf_t = type { %struct.lv_image_header_t, i32, ptr, ptr, ptr }
%struct.lv_image_header_t = type <{ i64, i32 }>

@lv_global = external global %struct._lv_global_t, align 8

; Function Attrs: nounwind uwtable
define internal zeroext i1 @freetype_image_create_cb(ptr noundef %0, ptr noundef %1) #0 {
  %3 = alloca i1, align 1
  %4 = alloca ptr, align 8
  %5 = alloca ptr, align 8
  %6 = alloca ptr, align 8
  %7 = alloca i32, align 4
  %8 = alloca ptr, align 8
  %9 = alloca i32, align 4
  %10 = alloca ptr, align 8
  %11 = alloca ptr, align 8
  %12 = alloca i16, align 2
  %13 = alloca i16, align 2
  %14 = alloca i32, align 4
  %15 = alloca i32, align 4
  %16 = alloca i32, align 4
  %17 = alloca i32, align 4
  store ptr %0, ptr %4, align 8, !tbaa !7
  store ptr %1, ptr %5, align 8, !tbaa !7
  call void @llvm.lifetime.start.p0(i64 8, ptr %6) #4
  %18 = load ptr, ptr %5, align 8, !tbaa !7
  store ptr %18, ptr %6, align 8, !tbaa !7
  call void @llvm.lifetime.start.p0(i64 4, ptr %7) #4
  %19 = load ptr, ptr %6, align 8, !tbaa !7
  %20 = getelementptr inbounds nuw %struct._lv_freetype_font_dsc_t, ptr %19, i32 0, i32 6
  %21 = load ptr, ptr %20, align 8, !tbaa !12
  %22 = getelementptr inbounds nuw %struct._lv_freetype_cache_node_t, ptr %21, i32 0, i32 5
  %23 = call i32 @lv_mutex_lock(ptr noundef %22)
  call void @llvm.lifetime.start.p0(i64 8, ptr %8) #4
  %24 = load ptr, ptr %6, align 8, !tbaa !7
  %25 = getelementptr inbounds nuw %struct._lv_freetype_font_dsc_t, ptr %24, i32 0, i32 6
  %26 = load ptr, ptr %25, align 8, !tbaa !12
  %27 = getelementptr inbounds nuw %struct._lv_freetype_cache_node_t, ptr %26, i32 0, i32 4
  %28 = load ptr, ptr %27, align 8, !tbaa !15
  store ptr %28, ptr %8, align 8, !tbaa !7
  %29 = load ptr, ptr %8, align 8, !tbaa !7
  %30 = getelementptr inbounds nuw %struct.FT_FaceRec_, ptr %29, i32 0, i32 2
  %31 = load i64, ptr %30, align 8, !tbaa !17
  %32 = and i64 %31, 1
  %33 = icmp ne i64 %32, 0
  br i1 %33, label %34, label %40

34:                                               ; preds = %2
  %35 = load ptr, ptr %8, align 8, !tbaa !7
  %36 = load ptr, ptr %6, align 8, !tbaa !7
  %37 = getelementptr inbounds nuw %struct._lv_freetype_font_dsc_t, ptr %36, i32 0, i32 2
  %38 = load i32, ptr %37, align 8, !tbaa !24
  %39 = call i32 @FT_Set_Pixel_Sizes(ptr noundef %35, i32 noundef 0, i32 noundef %38)
  store i32 %39, ptr %7, align 4, !tbaa !3
  br label %43

40:                                               ; preds = %2
  %41 = load ptr, ptr %8, align 8, !tbaa !7
  %42 = call i32 @FT_Select_Size(ptr noundef %41, i32 noundef 0)
  store i32 %42, ptr %7, align 4, !tbaa !3
  br label %43

43:                                               ; preds = %40, %34
  %44 = load i32, ptr %7, align 4, !tbaa !3
  %45 = icmp ne i32 %44, 0
  br i1 %45, label %46, label %55

46:                                               ; preds = %43
  br label %47

47:                                               ; preds = %46
  br label %48

48:                                               ; preds = %47
  br label %49

49:                                               ; preds = %48
  %50 = load ptr, ptr %6, align 8, !tbaa !7
  %51 = getelementptr inbounds nuw %struct._lv_freetype_font_dsc_t, ptr %50, i32 0, i32 6
  %52 = load ptr, ptr %51, align 8, !tbaa !12
  %53 = getelementptr inbounds nuw %struct._lv_freetype_cache_node_t, ptr %52, i32 0, i32 5
  %54 = call i32 @lv_mutex_unlock(ptr noundef %53)
  store i1 false, ptr %3, align 1
  store i32 1, ptr %9, align 4
  br label %182

55:                                               ; preds = %43
  %56 = load ptr, ptr %8, align 8, !tbaa !7
  %57 = load ptr, ptr %4, align 8, !tbaa !7
  %58 = getelementptr inbounds nuw %struct._lv_freetype_image_cache_data_t, ptr %57, i32 0, i32 0
  %59 = load i32, ptr %58, align 8, !tbaa !9
  %60 = call i32 @FT_Load_Glyph(ptr noundef %56, i32 noundef %59, i32 noundef 1081348)
  store i32 %60, ptr %7, align 4, !tbaa !3
  %61 = load i32, ptr %7, align 4, !tbaa !3
  %62 = icmp ne i32 %61, 0
  br i1 %62, label %63, label %72

63:                                               ; preds = %55
  br label %64

64:                                               ; preds = %63
  br label %65

65:                                               ; preds = %64
  br label %66

66:                                               ; preds = %65
  %67 = load ptr, ptr %6, align 8, !tbaa !7
  %68 = getelementptr inbounds nuw %struct._lv_freetype_font_dsc_t, ptr %67, i32 0, i32 6
  %69 = load ptr, ptr %68, align 8, !tbaa !12
  %70 = getelementptr inbounds nuw %struct._lv_freetype_cache_node_t, ptr %69, i32 0, i32 5
  %71 = call i32 @lv_mutex_unlock(ptr noundef %70)
  store i1 false, ptr %3, align 1
  store i32 1, ptr %9, align 4
  br label %182

72:                                               ; preds = %55
  %73 = load ptr, ptr %8, align 8, !tbaa !7
  %74 = getelementptr inbounds nuw %struct.FT_FaceRec_, ptr %73, i32 0, i32 21
  %75 = load ptr, ptr %74, align 8, !tbaa !25
  %76 = call i32 @FT_Render_Glyph(ptr noundef %75, i32 noundef 0)
  store i32 %76, ptr %7, align 4, !tbaa !3
  %77 = load i32, ptr %7, align 4, !tbaa !3
  %78 = icmp ne i32 %77, 0
  br i1 %78, label %79, label %88

79:                                               ; preds = %72
  br label %80

80:                                               ; preds = %79
  br label %81

81:                                               ; preds = %80
  br label %82

82:                                               ; preds = %81
  %83 = load ptr, ptr %6, align 8, !tbaa !7
  %84 = getelementptr inbounds nuw %struct._lv_freetype_font_dsc_t, ptr %83, i32 0, i32 6
  %85 = load ptr, ptr %84, align 8, !tbaa !12
  %86 = getelementptr inbounds nuw %struct._lv_freetype_cache_node_t, ptr %85, i32 0, i32 5
  %87 = call i32 @lv_mutex_unlock(ptr noundef %86)
  store i1 false, ptr %3, align 1
  store i32 1, ptr %9, align 4
  br label %182

88:                                               ; preds = %72
  call void @llvm.lifetime.start.p0(i64 8, ptr %10) #4
  %89 = load ptr, ptr %8, align 8, !tbaa !7
  %90 = getelementptr inbounds nuw %struct.FT_FaceRec_, ptr %89, i32 0, i32 21
  %91 = load ptr, ptr %90, align 8, !tbaa !25
  %92 = call i32 @FT_Get_Glyph(ptr noundef %91, ptr noundef %10)
  store i32 %92, ptr %7, align 4, !tbaa !3
  %93 = load i32, ptr %7, align 4, !tbaa !3
  %94 = icmp ne i32 %93, 0
  br i1 %94, label %95, label %104

95:                                               ; preds = %88
  br label %96

96:                                               ; preds = %95
  br label %97

97:                                               ; preds = %96
  br label %98

98:                                               ; preds = %97
  %99 = load ptr, ptr %6, align 8, !tbaa !7
  %100 = getelementptr inbounds nuw %struct._lv_freetype_font_dsc_t, ptr %99, i32 0, i32 6
  %101 = load ptr, ptr %100, align 8, !tbaa !12
  %102 = getelementptr inbounds nuw %struct._lv_freetype_cache_node_t, ptr %101, i32 0, i32 5
  %103 = call i32 @lv_mutex_unlock(ptr noundef %102)
  store i1 false, ptr %3, align 1
  store i32 1, ptr %9, align 4
  br label %181

104:                                              ; preds = %88
  call void @llvm.lifetime.start.p0(i64 8, ptr %11) #4
  %105 = load ptr, ptr %10, align 8, !tbaa !7
  store ptr %105, ptr %11, align 8, !tbaa !7
  call void @llvm.lifetime.start.p0(i64 2, ptr %12) #4
  %106 = load ptr, ptr %11, align 8, !tbaa !7
  %107 = getelementptr inbounds nuw %struct.FT_BitmapGlyphRec_, ptr %106, i32 0, i32 3
  %108 = getelementptr inbounds nuw %struct.FT_Bitmap_, ptr %107, i32 0, i32 0
  %109 = load i32, ptr %108, align 8, !tbaa !26
  %110 = trunc i32 %109 to i16
  store i16 %110, ptr %12, align 2, !tbaa !31
  call void @llvm.lifetime.start.p0(i64 2, ptr %13) #4
  %111 = load ptr, ptr %11, align 8, !tbaa !7
  %112 = getelementptr inbounds nuw %struct.FT_BitmapGlyphRec_, ptr %111, i32 0, i32 3
  %113 = getelementptr inbounds nuw %struct.FT_Bitmap_, ptr %112, i32 0, i32 1
  %114 = load i32, ptr %113, align 4, !tbaa !32
  %115 = trunc i32 %114 to i16
  store i16 %115, ptr %13, align 2, !tbaa !31
  call void @llvm.lifetime.start.p0(i64 4, ptr %14) #4
  %116 = load ptr, ptr %11, align 8, !tbaa !7
  %117 = getelementptr inbounds nuw %struct.FT_BitmapGlyphRec_, ptr %116, i32 0, i32 3
  %118 = getelementptr inbounds nuw %struct.FT_Bitmap_, ptr %117, i32 0, i32 5
  %119 = load i8, ptr %118, align 2, !tbaa !33
  %120 = zext i8 %119 to i32
  %121 = icmp eq i32 %120, 7
  br i1 %121, label %122, label %123

122:                                              ; preds = %104
  store i32 16, ptr %14, align 4, !tbaa !3
  br label %124

123:                                              ; preds = %104
  store i32 14, ptr %14, align 4, !tbaa !3
  br label %124

124:                                              ; preds = %123, %122
  call void @llvm.lifetime.start.p0(i64 4, ptr %15) #4
  %125 = load ptr, ptr %11, align 8, !tbaa !7
  %126 = getelementptr inbounds nuw %struct.FT_BitmapGlyphRec_, ptr %125, i32 0, i32 3
  %127 = getelementptr inbounds nuw %struct.FT_Bitmap_, ptr %126, i32 0, i32 2
  %128 = load i32, ptr %127, align 8, !tbaa !34
  store i32 %128, ptr %15, align 4, !tbaa !3
  call void @llvm.lifetime.start.p0(i64 4, ptr %16) #4
  %129 = load i16, ptr %13, align 2, !tbaa !31
  %130 = zext i16 %129 to i32
  %131 = load i32, ptr %14, align 4, !tbaa !3
  %132 = call i32 @lv_draw_buf_width_to_stride(i32 noundef %130, i32 noundef %131)
  store i32 %132, ptr %16, align 4, !tbaa !3
  %133 = load i16, ptr %13, align 2, !tbaa !31
  %134 = zext i16 %133 to i32
  %135 = load i16, ptr %12, align 2, !tbaa !31
  %136 = zext i16 %135 to i32
  %137 = load i32, ptr %14, align 4, !tbaa !3
  %138 = load i32, ptr %16, align 4, !tbaa !3
  %139 = call ptr @lv_draw_buf_create_ex(ptr noundef getelementptr inbounds nuw (%struct._lv_global_t, ptr @lv_global, i32 0, i32 26), i32 noundef %134, i32 noundef %136, i32 noundef %137, i32 noundef %138)
  %140 = load ptr, ptr %4, align 8, !tbaa !7
  %141 = getelementptr inbounds nuw %struct._lv_freetype_image_cache_data_t, ptr %140, i32 0, i32 2
  store ptr %139, ptr %141, align 8, !tbaa !35
  call void @llvm.lifetime.start.p0(i64 4, ptr %17) #4
  store i32 0, ptr %17, align 4, !tbaa !3
  br label %142

142:                                              ; preds = %171, %124
  %143 = load i32, ptr %17, align 4, !tbaa !3
  %144 = load i16, ptr %12, align 2, !tbaa !31
  %145 = zext i16 %144 to i32
  %146 = icmp slt i32 %143, %145
  br i1 %146, label %148, label %147

147:                                              ; preds = %142
  store i32 10, ptr %9, align 4
  call void @llvm.lifetime.end.p0(i64 4, ptr %17) #4
  br label %174

148:                                              ; preds = %142
  %149 = load ptr, ptr %4, align 8, !tbaa !7
  %150 = getelementptr inbounds nuw %struct._lv_freetype_image_cache_data_t, ptr %149, i32 0, i32 2
  %151 = load ptr, ptr %150, align 8, !tbaa !35
  %152 = getelementptr inbounds nuw %struct._lv_draw_buf_t, ptr %151, i32 0, i32 2
  %153 = load ptr, ptr %152, align 8, !tbaa !36
  %154 = load i32, ptr %17, align 4, !tbaa !3
  %155 = load i32, ptr %16, align 4, !tbaa !3
  %156 = mul i32 %154, %155
  %157 = zext i32 %156 to i64
  %158 = getelementptr inbounds nuw i8, ptr %153, i64 %157
  %159 = load ptr, ptr %11, align 8, !tbaa !7
  %160 = getelementptr inbounds nuw %struct.FT_BitmapGlyphRec_, ptr %159, i32 0, i32 3
  %161 = getelementptr inbounds nuw %struct.FT_Bitmap_, ptr %160, i32 0, i32 3
  %162 = load ptr, ptr %161, align 8, !tbaa !39
  %163 = load i32, ptr %17, align 4, !tbaa !3
  %164 = load i32, ptr %15, align 4, !tbaa !3
  %165 = mul i32 %163, %164
  %166 = zext i32 %165 to i64
  %167 = getelementptr inbounds nuw i8, ptr %162, i64 %166
  %168 = load i32, ptr %15, align 4, !tbaa !3
  %169 = zext i32 %168 to i64
  %170 = call ptr @lv_memcpy(ptr noundef %158, ptr noundef %167, i64 noundef %169)
  br label %171

171:                                              ; preds = %148
  %172 = load i32, ptr %17, align 4, !tbaa !3
  %173 = add nsw i32 %172, 1
  store i32 %173, ptr %17, align 4, !tbaa !3
  br label %142, !llvm.loop !40

174:                                              ; preds = %147
  %175 = load ptr, ptr %10, align 8, !tbaa !7
  call void @FT_Done_Glyph(ptr noundef %175)
  %176 = load ptr, ptr %6, align 8, !tbaa !7
  %177 = getelementptr inbounds nuw %struct._lv_freetype_font_dsc_t, ptr %176, i32 0, i32 6
  %178 = load ptr, ptr %177, align 8, !tbaa !12
  %179 = getelementptr inbounds nuw %struct._lv_freetype_cache_node_t, ptr %178, i32 0, i32 5
  %180 = call i32 @lv_mutex_unlock(ptr noundef %179)
  store i1 true, ptr %3, align 1
  store i32 1, ptr %9, align 4
  call void @llvm.lifetime.end.p0(i64 4, ptr %16) #4
  call void @llvm.lifetime.end.p0(i64 4, ptr %15) #4
  call void @llvm.lifetime.end.p0(i64 4, ptr %14) #4
  call void @llvm.lifetime.end.p0(i64 2, ptr %13) #4
  call void @llvm.lifetime.end.p0(i64 2, ptr %12) #4
  call void @llvm.lifetime.end.p0(i64 8, ptr %11) #4
  br label %181

181:                                              ; preds = %174, %98
  call void @llvm.lifetime.end.p0(i64 8, ptr %10) #4
  br label %182

182:                                              ; preds = %181, %82, %66, %49
  call void @llvm.lifetime.end.p0(i64 8, ptr %8) #4
  call void @llvm.lifetime.end.p0(i64 4, ptr %7) #4
  call void @llvm.lifetime.end.p0(i64 8, ptr %6) #4
  %183 = load i1, ptr %3, align 1
  ret i1 %183
}