; Function Attrs: nounwind uwtable
define internal noundef zeroext i1 @freetype_image_create_cb(ptr nocapture noundef %0, ptr nocapture noundef readonly %1) #0 {
  %3 = alloca ptr, align 8
  %4 = getelementptr inbounds nuw i8, ptr %1, i64 96
  %5 = load ptr, ptr %4, align 8, !tbaa !10
  %6 = getelementptr inbounds nuw i8, ptr %5, i64 32
  %7 = tail call i32 @lv_mutex_lock(ptr noundef nonnull %6) #5
  %8 = load ptr, ptr %4, align 8, !tbaa !10
  %9 = getelementptr inbounds nuw i8, ptr %8, i64 24
  %10 = load ptr, ptr %9, align 8, !tbaa !13
  %11 = getelementptr inbounds nuw i8, ptr %10, i64 16
  %12 = load i64, ptr %11, align 8, !tbaa !15
  %13 = and i64 %12, 1
  %.not = icmp eq i64 %13, 0
  br i1 %.not, label %18, label %14

14:                                               ; preds = %2
  %15 = getelementptr inbounds nuw i8, ptr %1, i64 72
  %16 = load i32, ptr %15, align 8, !tbaa !22
  %17 = tail call i32 @FT_Set_Pixel_Sizes(ptr noundef nonnull %10, i32 noundef 0, i32 noundef %16) #5
  br label %20

18:                                               ; preds = %2
  %19 = tail call i32 @FT_Select_Size(ptr noundef nonnull %10, i32 noundef 0) #5
  br label %20

20:                                               ; preds = %18, %14
  %.042 = phi i32 [ %17, %14 ], [ %19, %18 ]
  %.not44 = icmp eq i32 %.042, 0
  br i1 %.not44, label %25, label %21

21:                                               ; preds = %20
  %22 = load ptr, ptr %4, align 8, !tbaa !10
  %23 = getelementptr inbounds nuw i8, ptr %22, i64 32
  %24 = tail call i32 @lv_mutex_unlock(ptr noundef nonnull %23) #5
  br label %79

25:                                               ; preds = %20
  %26 = load i32, ptr %0, align 8, !tbaa !3
  %27 = tail call i32 @FT_Load_Glyph(ptr noundef nonnull %10, i32 noundef %26, i32 noundef 1081348) #5
  %.not45 = icmp eq i32 %27, 0
  br i1 %.not45, label %32, label %28

28:                                               ; preds = %25
  %29 = load ptr, ptr %4, align 8, !tbaa !10
  %30 = getelementptr inbounds nuw i8, ptr %29, i64 32
  %31 = tail call i32 @lv_mutex_unlock(ptr noundef nonnull %30) #5
  br label %79

32:                                               ; preds = %25
  %33 = getelementptr inbounds nuw i8, ptr %10, i64 152
  %34 = load ptr, ptr %33, align 8, !tbaa !23
  %35 = tail call i32 @FT_Render_Glyph(ptr noundef %34, i32 noundef 0) #5
  %.not46 = icmp eq i32 %35, 0
  br i1 %.not46, label %40, label %36

36:                                               ; preds = %32
  %37 = load ptr, ptr %4, align 8, !tbaa !10
  %38 = getelementptr inbounds nuw i8, ptr %37, i64 32
  %39 = tail call i32 @lv_mutex_unlock(ptr noundef nonnull %38) #5
  br label %79

40:                                               ; preds = %32
  call void @llvm.lifetime.start.p0(i64 8, ptr nonnull %3) #5
  %41 = load ptr, ptr %33, align 8, !tbaa !23
  %42 = call i32 @FT_Get_Glyph(ptr noundef %41, ptr noundef nonnull %3) #5
  %.not47 = icmp eq i32 %42, 0
  br i1 %.not47, label %43, label %75

43:                                               ; preds = %40
  %44 = load ptr, ptr %3, align 8, !tbaa !24
  %45 = getelementptr inbounds nuw i8, ptr %44, i64 48
  %46 = load i32, ptr %45, align 8, !tbaa !25
  %47 = getelementptr inbounds nuw i8, ptr %44, i64 52
  %48 = load i32, ptr %47, align 4, !tbaa !30
  %49 = getelementptr inbounds nuw i8, ptr %44, i64 74
  %50 = load i8, ptr %49, align 2, !tbaa !31
  %51 = icmp eq i8 %50, 7
  %. = select i1 %51, i32 16, i32 14
  %52 = getelementptr inbounds nuw i8, ptr %44, i64 56
  %53 = load i32, ptr %52, align 8, !tbaa !32
  %54 = and i32 %48, 65535
  %55 = call i32 @lv_draw_buf_width_to_stride(i32 noundef %54, i32 noundef %.) #5
  %56 = and i32 %46, 65535
  %57 = call ptr @lv_draw_buf_create_ex(ptr noundef nonnull getelementptr inbounds nuw (i8, ptr @lv_global, i64 400), i32 noundef %54, i32 noundef %56, i32 noundef %., i32 noundef %55) #5
  %58 = getelementptr inbounds nuw i8, ptr %0, i64 8
  store ptr %57, ptr %58, align 8, !tbaa !33
  %.not49 = icmp eq i32 %56, 0
  br i1 %.not49, label %._crit_edge, label %.lr.ph

.lr.ph:                                           ; preds = %43
  %59 = getelementptr inbounds nuw i8, ptr %44, i64 64
  %60 = zext i32 %53 to i64
  %wide.trip.count = zext nneg i32 %56 to i64
  br label %62

._crit_edge:                                      ; preds = %62, %43
  %61 = load ptr, ptr %3, align 8, !tbaa !24
  call void @FT_Done_Glyph(ptr noundef %61) #5
  br label %75

62:                                               ; preds = %.lr.ph, %62
  %indvars.iv = phi i64 [ 0, %.lr.ph ], [ %indvars.iv.next, %62 ]
  %63 = load ptr, ptr %58, align 8, !tbaa !33
  %64 = getelementptr inbounds nuw i8, ptr %63, i64 16
  %65 = load ptr, ptr %64, align 8, !tbaa !34
  %66 = trunc nuw nsw i64 %indvars.iv to i32
  %67 = mul i32 %55, %66
  %68 = zext i32 %67 to i64
  %69 = getelementptr inbounds nuw i8, ptr %65, i64 %68
  %70 = load ptr, ptr %59, align 8, !tbaa !37
  %71 = mul i32 %53, %66
  %72 = zext i32 %71 to i64
  %73 = getelementptr inbounds nuw i8, ptr %70, i64 %72
  %74 = call ptr @lv_memcpy(ptr noundef %69, ptr noundef %73, i64 noundef %60) #5
  %indvars.iv.next = add nuw nsw i64 %indvars.iv, 1
  %exitcond.not = icmp eq i64 %indvars.iv.next, %wide.trip.count
  br i1 %exitcond.not, label %._crit_edge, label %62, !llvm.loop !38

75:                                               ; preds = %40, %._crit_edge
  %76 = load ptr, ptr %4, align 8, !tbaa !10
  %77 = getelementptr inbounds nuw i8, ptr %76, i64 32
  %78 = call i32 @lv_mutex_unlock(ptr noundef nonnull %77) #5
  call void @llvm.lifetime.end.p0(i64 8, ptr nonnull %3) #5
  br label %79

79:                                               ; preds = %75, %36, %28, %21
  %.041 = phi i1 [ false, %21 ], [ false, %28 ], [ false, %36 ], [ %.not47, %75 ]
  ret i1 %.041
}